; Function Attrs: mustprogress nofree norecurse nosync nounwind willreturn memory(argmem: readwrite) uwtable
define void @_ZN2cv3reg9MapAffine5scaleEd(ptr noundef nonnull align 8 captures(none) dereferenceable(56) %0, double noundef %1) unnamed_addr #12 align 2 {
_ZN2cvmLIdLi2EEERNS_3VecIT_XT0_EEES4_d.exit.critedge:
  %2 = getelementptr inbounds nuw i8, ptr %0, i64 40
  %3 = load double, ptr %2, align 8, !tbaa !6
  %4 = fmul double %1, %3
  store double %4, ptr %2, align 8, !tbaa !6
  %5 = getelementptr inbounds nuw i8, ptr %0, i64 48
  %6 = load double, ptr %5, align 8, !tbaa !6
  %7 = fmul double %1, %6
  store double %7, ptr %5, align 8, !tbaa !6
  ret void
}